target datalayout = "e-m:e-p270:32:32-p271:32:32-p272:64:64-i64:64-i128:128-f80:128-n8:16:32:64-S128"
target triple = "x86_64-pc-linux-gnu"

%struct._lv_roller_t = type { %struct._lv_obj_t, i32, i32, i32, i32, i8 }
%struct._lv_obj_t = type { ptr, ptr, ptr, ptr, ptr, %struct.lv_area_t, i32, i16, i16 }
%struct.lv_area_t = type { i32, i32, i32, i32 }

; Function Attrs: nounwind uwtable
define i32 @lv_roller_get_selected(ptr noundef %0) #0 {
  %2 = alloca i32, align 4
  %3 = alloca ptr, align 8
  %4 = alloca ptr, align 8
  %5 = alloca i32, align 4
  %6 = alloca i32, align 4
  store ptr %0, ptr %3, align 8, !tbaa !8
  br label %7

7:                                                ; preds = %1
  %8 = load ptr, ptr %3, align 8, !tbaa !8
  %9 = icmp ne ptr %8, null
  br i1 %9, label %14, label %10

10:                                               ; preds = %7
  br label %11

11:                                               ; preds = %10
  br label %12

12:                                               ; preds = %11
  br label %13

13:                                               ; preds = %12, %13
  br label %13

14:                                               ; preds = %7
  br label %15

15:                                               ; preds = %14
  call void @llvm.lifetime.start.p0(i64 8, ptr %4) #6
  %16 = load ptr, ptr %3, align 8, !tbaa !8
  store ptr %16, ptr %4, align 8, !tbaa !10
  %17 = load ptr, ptr %4, align 8, !tbaa !10
  %18 = getelementptr inbounds nuw %struct._lv_roller_t, ptr %17, i32 0, i32 5
  %19 = load i8, ptr %18, align 8
  %20 = and i8 %19, 3
  %21 = zext i8 %20 to i32
  %22 = icmp eq i32 %21, 1
  br i1 %22, label %23, label %36

23:                                               ; preds = %15
  call void @llvm.lifetime.start.p0(i64 4, ptr %5) #6
  %24 = load ptr, ptr %4, align 8, !tbaa !10
  %25 = getelementptr inbounds nuw %struct._lv_roller_t, ptr %24, i32 0, i32 1
  %26 = load i32, ptr %25, align 8, !tbaa !12
  %27 = load ptr, ptr %4, align 8, !tbaa !10
  %28 = getelementptr inbounds nuw %struct._lv_roller_t, ptr %27, i32 0, i32 4
  %29 = load i32, ptr %28, align 4, !tbaa !46
  %30 = udiv i32 %26, %29
  store i32 %30, ptr %5, align 4, !tbaa !24
  %31 = load ptr, ptr %4, align 8, !tbaa !10
  %32 = getelementptr inbounds nuw %struct._lv_roller_t, ptr %31, i32 0, i32 2
  %33 = load i32, ptr %32, align 4, !tbaa !20
  %34 = load i32, ptr %5, align 4, !tbaa !24
  %35 = urem i32 %33, %34
  store i32 %35, ptr %2, align 4
  store i32 1, ptr %6, align 4
  call void @llvm.lifetime.end.p0(i64 4, ptr %5) #6
  br label %40

36:                                               ; preds = %15
  %37 = load ptr, ptr %4, align 8, !tbaa !10
  %38 = getelementptr inbounds nuw %struct._lv_roller_t, ptr %37, i32 0, i32 2
  %39 = load i32, ptr %38, align 4, !tbaa !20
  store i32 %39, ptr %2, align 4
  store i32 1, ptr %6, align 4
  br label %40

40:                                               ; preds = %36, %23
  call void @llvm.lifetime.end.p0(i64 8, ptr %4) #6
  %41 = load i32, ptr %2, align 4
  ret i32 %41
}