; Function Attrs: nofree norecurse nosync nounwind memory(argmem: read) uwtable
define i32 @lv_roller_get_selected(ptr noundef readonly captures(address_is_null) %0) local_unnamed_addr #3 {
  %.not = icmp eq ptr %0, null
  br i1 %.not, label %.preheader, label %2

.preheader:                                       ; preds = %1, %.preheader
  br label %.preheader

2:                                                ; preds = %1
  %3 = getelementptr inbounds nuw i8, ptr %0, i64 80
  %4 = load i8, ptr %3, align 8
  %5 = and i8 %4, 3
  %6 = icmp eq i8 %5, 1
  br i1 %6, label %7, label %16

7:                                                ; preds = %2
  %8 = getelementptr inbounds nuw i8, ptr %0, i64 64
  %9 = load i32, ptr %8, align 8, !tbaa !3
  %10 = getelementptr inbounds nuw i8, ptr %0, i64 76
  %11 = load i32, ptr %10, align 4, !tbaa !42
  %12 = udiv i32 %9, %11
  %13 = getelementptr inbounds nuw i8, ptr %0, i64 68
  %14 = load i32, ptr %13, align 4, !tbaa !16
  %15 = urem i32 %14, %12
  br label %19

16:                                               ; preds = %2
  %17 = getelementptr inbounds nuw i8, ptr %0, i64 68
  %18 = load i32, ptr %17, align 4, !tbaa !16
  br label %19

19:                                               ; preds = %16, %7
  %.0 = phi i32 [ %15, %7 ], [ %18, %16 ]
  ret i32 %.0
}